target datalayout = "e-m:e-p270:32:32-p271:32:32-p272:64:64-i64:64-i128:128-f80:128-n8:16:32:64-S128"
target triple = "x86_64-pc-linux-gnu"

%struct.slurm_conf_t = type { i64, ptr, i16, ptr, ptr, ptr, ptr, ptr, i16, ptr, ptr, ptr, ptr, ptr, ptr, ptr, i16, ptr, ptr, ptr, ptr, i16, ptr, ptr, ptr, i64, ptr, ptr, ptr, ptr, i16, ptr, ptr, i16, i32, ptr, i32, ptr, i32, i32, ptr, ptr, i64, i64, ptr, i16, i16, ptr, i32, i32, ptr, i32, ptr, i32, i16, i16, i16, ptr, i16, i16, ptr, ptr, i32, i16, i16, ptr, i32, i16, ptr, ptr, ptr, ptr, i16, ptr, ptr, ptr, ptr, i32, ptr, ptr, ptr, ptr, i16, i16, ptr, i32, i32, i32, i16, i16, ptr, ptr, i16, ptr, ptr, i32, i32, i32, i32, i32, i64, i32, i32, i16, ptr, ptr, i32, ptr, ptr, ptr, i16, i32, ptr, ptr, i16, ptr, ptr, i32, i16, ptr, ptr, ptr, ptr, i32, i32, i16, i16, i32, ptr, i16, ptr, i32, i32, i32, i32, i32, i32, ptr, i16, ptr, ptr, i32, i16, ptr, i32, i16, i16, ptr, ptr, ptr, i16, ptr, ptr, ptr, ptr, i16, i16, ptr, i16, ptr, i16, ptr, i16, ptr, i16, ptr, ptr, ptr, ptr, i16, ptr, ptr, ptr, i32, ptr, i32, ptr, ptr, i16, ptr, ptr, i32, i16, ptr, ptr, i16, i16, ptr, i16, ptr, ptr, ptr, i32, ptr, i16, i16, ptr, ptr, ptr, ptr, ptr, ptr, ptr, ptr, i16, i32, i16, ptr, ptr, ptr, ptr, i32, ptr, ptr, ptr, i16, ptr, ptr, ptr, i16, ptr, i16, ptr, i16, i16, ptr }

@slurm_conf = external global %struct.slurm_conf_t, align 8
@_max_switch_wait.sched_update = internal global i64 0, align 8
@_max_switch_wait.max_wait = internal global i32 300, align 4
@.str.416 = private unnamed_addr constant [17 x i8] c"max_switch_wait=\00", align 1
@.str.417 = private unnamed_addr constant [52 x i8] c"ignoring SchedulerParameters: max_switch_wait of %d\00", align 1

; Function Attrs: inlinehint nounwind willreturn memory(read) uwtable
define available_externally i32 @atoi(ptr noundef nonnull %0) #8 {
  %2 = alloca ptr, align 8
  store ptr %0, ptr %2, align 8
  %3 = load ptr, ptr %2, align 8
  %4 = call i64 @strtol(ptr noundef %3, ptr noundef null, i32 noundef 10) #13
  %5 = trunc i64 %4 to i32
  ret i32 %5
}

; Function Attrs: nounwind uwtable
define internal i32 @_max_switch_wait(i32 noundef %0) #0 {
  %2 = alloca i32, align 4
  %3 = alloca i32, align 4
  %4 = alloca i32, align 4
  %5 = alloca ptr, align 8
  %6 = alloca i32, align 4
  store i32 %0, ptr %3, align 4
  call void @llvm.lifetime.start.p0(i64 4, ptr %4) #13
  %7 = load i64, ptr @_max_switch_wait.sched_update, align 8
  %8 = load i64, ptr @slurm_conf, align 8
  %9 = icmp ne i64 %7, %8
  br i1 %9, label %10, label %28

10:                                               ; preds = %1
  call void @llvm.lifetime.start.p0(i64 8, ptr %5) #13
  %11 = load i64, ptr @slurm_conf, align 8
  store i64 %11, ptr @_max_switch_wait.sched_update, align 8
  %12 = load ptr, ptr getelementptr inbounds nuw (%struct.slurm_conf_t, ptr @slurm_conf, i32 0, i32 163), align 8
  %13 = call ptr @xstrcasestr(ptr noundef %12, ptr noundef @.str.416)
  store ptr %13, ptr %5, align 8
  %14 = icmp ne ptr %13, null
  br i1 %14, label %15, label %27

15:                                               ; preds = %10
  %16 = load ptr, ptr %5, align 8
  %17 = getelementptr inbounds i8, ptr %16, i64 16
  %18 = call i32 @atoi(ptr noundef %17) #16
  store i32 %18, ptr %4, align 4
  %19 = load i32, ptr %4, align 4
  %20 = icmp slt i32 %19, 0
  br i1 %20, label %21, label %24

21:                                               ; preds = %15
  %22 = load i32, ptr %4, align 4
  %23 = call i32 (ptr, ...) @error(ptr noundef @.str.417, i32 noundef %22)
  br label %26

24:                                               ; preds = %15
  %25 = load i32, ptr %4, align 4
  store i32 %25, ptr @_max_switch_wait.max_wait, align 4
  br label %26

26:                                               ; preds = %24, %21
  br label %27

27:                                               ; preds = %26, %10
  call void @llvm.lifetime.end.p0(i64 8, ptr %5) #13
  br label %28

28:                                               ; preds = %27, %1
  %29 = load i32, ptr @_max_switch_wait.max_wait, align 4
  %30 = load i32, ptr %3, align 4
  %31 = icmp ugt i32 %29, %30
  br i1 %31, label %32, label %34

32:                                               ; preds = %28
  %33 = load i32, ptr %3, align 4
  store i32 %33, ptr %2, align 4
  store i32 1, ptr %6, align 4
  br label %36

34:                                               ; preds = %28
  %35 = load i32, ptr @_max_switch_wait.max_wait, align 4
  store i32 %35, ptr %2, align 4
  store i32 1, ptr %6, align 4
  br label %36

36:                                               ; preds = %34, %32
  call void @llvm.lifetime.end.p0(i64 4, ptr %4) #13
  %37 = load i32, ptr %2, align 4
  ret i32 %37
}