; Function Attrs: nounwind uwtable
define internal fastcc range(i32 0, -2147483648) i32 @_max_switch_wait(i32 noundef range(i32 -1, -2) %0) unnamed_addr #0 {
  %2 = load i64, ptr @_max_switch_wait.sched_update, align 8
  %3 = load i64, ptr @slurm_conf, align 8
  %.not = icmp eq i64 %2, %3
  br i1 %.not, label %15, label %4

4:                                                ; preds = %1
  store i64 %3, ptr @_max_switch_wait.sched_update, align 8
  %5 = load ptr, ptr getelementptr inbounds nuw (i8, ptr @slurm_conf, i64 1072), align 8
  %6 = tail call ptr @xstrcasestr(ptr noundef %5, ptr noundef nonnull @.str.416) #27
  %.not11 = icmp eq ptr %6, null
  br i1 %.not11, label %15, label %7

7:                                                ; preds = %4
  %8 = getelementptr inbounds nuw i8, ptr %6, i64 16
  %9 = tail call i64 @strtol(ptr noundef nonnull captures(none) %8, ptr noundef null, i32 noundef 10) #27
  %10 = trunc i64 %9 to i32
  %11 = icmp slt i32 %10, 0
  br i1 %11, label %12, label %14

12:                                               ; preds = %7
  %13 = tail call i32 (ptr, ...) @error(ptr noundef nonnull @.str.417, i32 noundef %10) #27
  br label %15

14:                                               ; preds = %7
  store i32 %10, ptr @_max_switch_wait.max_wait, align 4
  br label %15

15:                                               ; preds = %4, %14, %12, %1
  %16 = load i32, ptr @_max_switch_wait.max_wait, align 4
  %. = tail call i32 @llvm.umin.i32(i32 %16, i32 %0)
  ret i32 %.
}